target datalayout = "e-m:e-p270:32:32-p271:32:32-p272:64:64-i64:64-i128:128-f80:128-n8:16:32:64-S128"
target triple = "x86_64-unknown-linux-gnu"

%struct.BlockdevOptionsCurlBase = type { ptr, i8, i64, i8, i64, ptr, ptr, ptr, ptr }

@.str.347 = private unnamed_addr constant [16 x i8] c"password-secret\00", align 1
@.str.350 = private unnamed_addr constant [8 x i8] c"timeout\00", align 1
@.str.361 = private unnamed_addr constant [4 x i8] c"url\00", align 1
@.str.362 = private unnamed_addr constant [10 x i8] c"readahead\00", align 1
@.str.363 = private unnamed_addr constant [9 x i8] c"username\00", align 1
@.str.364 = private unnamed_addr constant [15 x i8] c"proxy-username\00", align 1
@.str.365 = private unnamed_addr constant [22 x i8] c"proxy-password-secret\00", align 1

; Function Attrs: nounwind sspstrong uwtable
define dso_local zeroext i1 @visit_type_BlockdevOptionsCurlBase_members(ptr noundef %v, ptr noundef %obj, ptr noundef %errp) #0 {
entry:
  %retval = alloca i1, align 1
  %v.addr = alloca ptr, align 8
  %obj.addr = alloca ptr, align 8
  %errp.addr = alloca ptr, align 8
  %has_username = alloca i8, align 1
  %has_password_secret = alloca i8, align 1
  %has_proxy_username = alloca i8, align 1
  %has_proxy_password_secret = alloca i8, align 1
  store ptr %v, ptr %v.addr, align 8
  store ptr %obj, ptr %obj.addr, align 8
  store ptr %errp, ptr %errp.addr, align 8
  %0 = load ptr, ptr %obj.addr, align 8
  %username = getelementptr inbounds %struct.BlockdevOptionsCurlBase, ptr %0, i32 0, i32 5
  %1 = load ptr, ptr %username, align 8
  %tobool = icmp ne ptr %1, null
  %lnot = xor i1 %tobool, true
  %lnot1 = xor i1 %lnot, true
  %frombool = zext i1 %lnot1 to i8
  store i8 %frombool, ptr %has_username, align 1
  %2 = load ptr, ptr %obj.addr, align 8
  %password_secret = getelementptr inbounds %struct.BlockdevOptionsCurlBase, ptr %2, i32 0, i32 6
  %3 = load ptr, ptr %password_secret, align 8
  %tobool2 = icmp ne ptr %3, null
  %lnot3 = xor i1 %tobool2, true
  %lnot4 = xor i1 %lnot3, true
  %frombool5 = zext i1 %lnot4 to i8
  store i8 %frombool5, ptr %has_password_secret, align 1
  %4 = load ptr, ptr %obj.addr, align 8
  %proxy_username = getelementptr inbounds %struct.BlockdevOptionsCurlBase, ptr %4, i32 0, i32 7
  %5 = load ptr, ptr %proxy_username, align 8
  %tobool6 = icmp ne ptr %5, null
  %lnot7 = xor i1 %tobool6, true
  %lnot8 = xor i1 %lnot7, true
  %frombool9 = zext i1 %lnot8 to i8
  store i8 %frombool9, ptr %has_proxy_username, align 1
  %6 = load ptr, ptr %obj.addr, align 8
  %proxy_password_secret = getelementptr inbounds %struct.BlockdevOptionsCurlBase, ptr %6, i32 0, i32 8
  %7 = load ptr, ptr %proxy_password_secret, align 8
  %tobool10 = icmp ne ptr %7, null
  %lnot11 = xor i1 %tobool10, true
  %lnot12 = xor i1 %lnot11, true
  %frombool13 = zext i1 %lnot12 to i8
  store i8 %frombool13, ptr %has_proxy_password_secret, align 1
  %8 = load ptr, ptr %v.addr, align 8
  %9 = load ptr, ptr %obj.addr, align 8
  %url = getelementptr inbounds %struct.BlockdevOptionsCurlBase, ptr %9, i32 0, i32 0
  %10 = load ptr, ptr %errp.addr, align 8
  %call = call zeroext i1 @visit_type_str(ptr noundef %8, ptr noundef @.str.361, ptr noundef %url, ptr noundef %10)
  br i1 %call, label %if.end, label %if.then

if.then:                                          ; preds = %entry
  store i1 false, ptr %retval, align 1
  br label %return

if.end:                                           ; preds = %entry
  %11 = load ptr, ptr %v.addr, align 8
  %12 = load ptr, ptr %obj.addr, align 8
  %has_readahead = getelementptr inbounds %struct.BlockdevOptionsCurlBase, ptr %12, i32 0, i32 1
  %call14 = call zeroext i1 @visit_optional(ptr noundef %11, ptr noundef @.str.362, ptr noundef %has_readahead)
  br i1 %call14, label %if.then15, label %if.end19

if.then15:                                        ; preds = %if.end
  %13 = load ptr, ptr %v.addr, align 8
  %14 = load ptr, ptr %obj.addr, align 8
  %readahead = getelementptr inbounds %struct.BlockdevOptionsCurlBase, ptr %14, i32 0, i32 2
  %15 = load ptr, ptr %errp.addr, align 8
  %call16 = call zeroext i1 @visit_type_int(ptr noundef %13, ptr noundef @.str.362, ptr noundef %readahead, ptr noundef %15)
  br i1 %call16, label %if.end18, label %if.then17

if.then17:                                        ; preds = %if.then15
  store i1 false, ptr %retval, align 1
  br label %return

if.end18:                                         ; preds = %if.then15
  br label %if.end19

if.end19:                                         ; preds = %if.end18, %if.end
  %16 = load ptr, ptr %v.addr, align 8
  %17 = load ptr, ptr %obj.addr, align 8
  %has_timeout = getelementptr inbounds %struct.BlockdevOptionsCurlBase, ptr %17, i32 0, i32 3
  %call20 = call zeroext i1 @visit_optional(ptr noundef %16, ptr noundef @.str.350, ptr noundef %has_timeout)
  br i1 %call20, label %if.then21, label %if.end25

if.then21:                                        ; preds = %if.end19
  %18 = load ptr, ptr %v.addr, align 8
  %19 = load ptr, ptr %obj.addr, align 8
  %timeout = getelementptr inbounds %struct.BlockdevOptionsCurlBase, ptr %19, i32 0, i32 4
  %20 = load ptr, ptr %errp.addr, align 8
  %call22 = call zeroext i1 @visit_type_int(ptr noundef %18, ptr noundef @.str.350, ptr noundef %timeout, ptr noundef %20)
  br i1 %call22, label %if.end24, label %if.then23

if.then23:                                        ; preds = %if.then21
  store i1 false, ptr %retval, align 1
  br label %return

if.end24:                                         ; preds = %if.then21
  br label %if.end25

if.end25:                                         ; preds = %if.end24, %if.end19
  %21 = load ptr, ptr %v.addr, align 8
  %call26 = call zeroext i1 @visit_optional(ptr noundef %21, ptr noundef @.str.363, ptr noundef %has_username)
  br i1 %call26, label %if.then27, label %if.end32

if.then27:                                        ; preds = %if.end25
  %22 = load ptr, ptr %v.addr, align 8
  %23 = load ptr, ptr %obj.addr, align 8
  %username28 = getelementptr inbounds %struct.BlockdevOptionsCurlBase, ptr %23, i32 0, i32 5
  %24 = load ptr, ptr %errp.addr, align 8
  %call29 = call zeroext i1 @visit_type_str(ptr noundef %22, ptr noundef @.str.363, ptr noundef %username28, ptr noundef %24)
  br i1 %call29, label %if.end31, label %if.then30

if.then30:                                        ; preds = %if.then27
  store i1 false, ptr %retval, align 1
  br label %return

if.end31:                                         ; preds = %if.then27
  br label %if.end32

if.end32:                                         ; preds = %if.end31, %if.end25
  %25 = load ptr, ptr %v.addr, align 8
  %call33 = call zeroext i1 @visit_optional(ptr noundef %25, ptr noundef @.str.347, ptr noundef %has_password_secret)
  br i1 %call33, label %if.then34, label %if.end39

if.then34:                                        ; preds = %if.end32
  %26 = load ptr, ptr %v.addr, align 8
  %27 = load ptr, ptr %obj.addr, align 8
  %password_secret35 = getelementptr inbounds %struct.BlockdevOptionsCurlBase, ptr %27, i32 0, i32 6
  %28 = load ptr, ptr %errp.addr, align 8
  %call36 = call zeroext i1 @visit_type_str(ptr noundef %26, ptr noundef @.str.347, ptr noundef %password_secret35, ptr noundef %28)
  br i1 %call36, label %if.end38, label %if.then37

if.then37:                                        ; preds = %if.then34
  store i1 false, ptr %retval, align 1
  br label %return

if.end38:                                         ; preds = %if.then34
  br label %if.end39

if.end39:                                         ; preds = %if.end38, %if.end32
  %29 = load ptr, ptr %v.addr, align 8
  %call40 = call zeroext i1 @visit_optional(ptr noundef %29, ptr noundef @.str.364, ptr noundef %has_proxy_username)
  br i1 %call40, label %if.then41, label %if.end46

if.then41:                                        ; preds = %if.end39
  %30 = load ptr, ptr %v.addr, align 8
  %31 = load ptr, ptr %obj.addr, align 8
  %proxy_username42 = getelementptr inbounds %struct.BlockdevOptionsCurlBase, ptr %31, i32 0, i32 7
  %32 = load ptr, ptr %errp.addr, align 8
  %call43 = call zeroext i1 @visit_type_str(ptr noundef %30, ptr noundef @.str.364, ptr noundef %proxy_username42, ptr noundef %32)
  br i1 %call43, label %if.end45, label %if.then44

if.then44:                                        ; preds = %if.then41
  store i1 false, ptr %retval, align 1
  br label %return

if.end45:                                         ; preds = %if.then41
  br label %if.end46

if.end46:                                         ; preds = %if.end45, %if.end39
  %33 = load ptr, ptr %v.addr, align 8
  %call47 = call zeroext i1 @visit_optional(ptr noundef %33, ptr noundef @.str.365, ptr noundef %has_proxy_password_secret)
  br i1 %call47, label %if.then48, label %if.end53

if.then48:                                        ; preds = %if.end46
  %34 = load ptr, ptr %v.addr, align 8
  %35 = load ptr, ptr %obj.addr, align 8
  %proxy_password_secret49 = getelementptr inbounds %struct.BlockdevOptionsCurlBase, ptr %35, i32 0, i32 8
  %36 = load ptr, ptr %errp.addr, align 8
  %call50 = call zeroext i1 @visit_type_str(ptr noundef %34, ptr noundef @.str.365, ptr noundef %proxy_password_secret49, ptr noundef %36)
  br i1 %call50, label %if.end52, label %if.then51

if.then51:                                        ; preds = %if.then48
  store i1 false, ptr %retval, align 1
  br label %return

if.end52:                                         ; preds = %if.then48
  br label %if.end53

if.end53:                                         ; preds = %if.end52, %if.end46
  store i1 true, ptr %retval, align 1
  br label %return

return:                                           ; preds = %if.end53, %if.then51, %if.then44, %if.then37, %if.then30, %if.then23, %if.then17, %if.then
  %37 = load i1, ptr %retval, align 1
  ret i1 %37
}