; Function Attrs: nounwind sspstrong uwtable
define dso_local noundef zeroext i1 @visit_type_BlockdevOptionsCurlBase_members(ptr noundef %v, ptr noundef %obj, ptr noundef %errp) local_unnamed_addr #0 {
entry:
  %has_username = alloca i8, align 1
  %has_password_secret = alloca i8, align 1
  %has_proxy_username = alloca i8, align 1
  %has_proxy_password_secret = alloca i8, align 1
  %username = getelementptr inbounds nuw i8, ptr %obj, i64 40
  %0 = load ptr, ptr %username, align 8
  %tobool = icmp ne ptr %0, null
  %frombool = zext i1 %tobool to i8
  store i8 %frombool, ptr %has_username, align 1
  %password_secret = getelementptr inbounds nuw i8, ptr %obj, i64 48
  %1 = load ptr, ptr %password_secret, align 8
  %tobool2 = icmp ne ptr %1, null
  %frombool5 = zext i1 %tobool2 to i8
  store i8 %frombool5, ptr %has_password_secret, align 1
  %proxy_username = getelementptr inbounds nuw i8, ptr %obj, i64 56
  %2 = load ptr, ptr %proxy_username, align 8
  %tobool6 = icmp ne ptr %2, null
  %frombool9 = zext i1 %tobool6 to i8
  store i8 %frombool9, ptr %has_proxy_username, align 1
  %proxy_password_secret = getelementptr inbounds nuw i8, ptr %obj, i64 64
  %3 = load ptr, ptr %proxy_password_secret, align 8
  %tobool10 = icmp ne ptr %3, null
  %frombool13 = zext i1 %tobool10 to i8
  store i8 %frombool13, ptr %has_proxy_password_secret, align 1
  %call = tail call zeroext i1 @visit_type_str(ptr noundef %v, ptr noundef nonnull @.str.361, ptr noundef %obj, ptr noundef %errp) #5
  br i1 %call, label %if.end, label %return

if.end:                                           ; preds = %entry
  %has_readahead = getelementptr inbounds nuw i8, ptr %obj, i64 8
  %call14 = tail call zeroext i1 @visit_optional(ptr noundef %v, ptr noundef nonnull @.str.362, ptr noundef nonnull %has_readahead) #5
  br i1 %call14, label %if.then15, label %if.end19

if.then15:                                        ; preds = %if.end
  %readahead = getelementptr inbounds nuw i8, ptr %obj, i64 16
  %call16 = tail call zeroext i1 @visit_type_int(ptr noundef %v, ptr noundef nonnull @.str.362, ptr noundef nonnull %readahead, ptr noundef %errp) #5
  br i1 %call16, label %if.end19, label %return

if.end19:                                         ; preds = %if.then15, %if.end
  %has_timeout = getelementptr inbounds nuw i8, ptr %obj, i64 24
  %call20 = tail call zeroext i1 @visit_optional(ptr noundef %v, ptr noundef nonnull @.str.350, ptr noundef nonnull %has_timeout) #5
  br i1 %call20, label %if.then21, label %if.end25

if.then21:                                        ; preds = %if.end19
  %timeout = getelementptr inbounds nuw i8, ptr %obj, i64 32
  %call22 = tail call zeroext i1 @visit_type_int(ptr noundef %v, ptr noundef nonnull @.str.350, ptr noundef nonnull %timeout, ptr noundef %errp) #5
  br i1 %call22, label %if.end25, label %return

if.end25:                                         ; preds = %if.then21, %if.end19
  %call26 = call zeroext i1 @visit_optional(ptr noundef %v, ptr noundef nonnull @.str.363, ptr noundef nonnull %has_username) #5
  br i1 %call26, label %if.then27, label %if.end32

if.then27:                                        ; preds = %if.end25
  %call29 = call zeroext i1 @visit_type_str(ptr noundef %v, ptr noundef nonnull @.str.363, ptr noundef nonnull %username, ptr noundef %errp) #5
  br i1 %call29, label %if.end32, label %return

if.end32:                                         ; preds = %if.then27, %if.end25
  %call33 = call zeroext i1 @visit_optional(ptr noundef %v, ptr noundef nonnull @.str.347, ptr noundef nonnull %has_password_secret) #5
  br i1 %call33, label %if.then34, label %if.end39

if.then34:                                        ; preds = %if.end32
  %call36 = call zeroext i1 @visit_type_str(ptr noundef %v, ptr noundef nonnull @.str.347, ptr noundef nonnull %password_secret, ptr noundef %errp) #5
  br i1 %call36, label %if.end39, label %return

if.end39:                                         ; preds = %if.then34, %if.end32
  %call40 = call zeroext i1 @visit_optional(ptr noundef %v, ptr noundef nonnull @.str.364, ptr noundef nonnull %has_proxy_username) #5
  br i1 %call40, label %if.then41, label %if.end46

if.then41:                                        ; preds = %if.end39
  %call43 = call zeroext i1 @visit_type_str(ptr noundef %v, ptr noundef nonnull @.str.364, ptr noundef nonnull %proxy_username, ptr noundef %errp) #5
  br i1 %call43, label %if.end46, label %return

if.end46:                                         ; preds = %if.then41, %if.end39
  %call47 = call zeroext i1 @visit_optional(ptr noundef %v, ptr noundef nonnull @.str.365, ptr noundef nonnull %has_proxy_password_secret) #5
  br i1 %call47, label %if.then48, label %if.end53

if.then48:                                        ; preds = %if.end46
  %call50 = call zeroext i1 @visit_type_str(ptr noundef %v, ptr noundef nonnull @.str.365, ptr noundef nonnull %proxy_password_secret, ptr noundef %errp) #5
  br i1 %call50, label %if.end53, label %return

if.end53:                                         ; preds = %if.then48, %if.end46
  br label %return

return:                                           ; preds = %if.then48, %if.then41, %if.then34, %if.then27, %if.then21, %if.then15, %entry, %if.end53
  %retval.0 = phi i1 [ true, %if.end53 ], [ false, %entry ], [ false, %if.then15 ], [ false, %if.then21 ], [ false, %if.then27 ], [ false, %if.then34 ], [ false, %if.then41 ], [ false, %if.then48 ]
  ret i1 %retval.0
}